; Function Attrs: nofree norecurse nosync nounwind memory(argmem: read) uwtable
define i32 @Fra_SmlNodeCountOnes(ptr noundef readonly captures(none) %0, ptr noundef readonly captures(none) %1) local_unnamed_addr #2 {
  %3 = getelementptr inbounds nuw i8, ptr %1, i64 36
  %4 = load i32, ptr %3, align 4, !tbaa !22
  %5 = getelementptr inbounds nuw i8, ptr %0, i64 40
  %6 = getelementptr inbounds nuw i8, ptr %0, i64 20
  %7 = load i32, ptr %6, align 4, !tbaa !25
  %8 = mul nsw i32 %7, %4
  %9 = sext i32 %8 to i64
  %10 = getelementptr inbounds i32, ptr %5, i64 %9
  %11 = icmp sgt i32 %7, 0
  br i1 %11, label %.lr.ph.preheader, label %._crit_edge

.lr.ph.preheader:                                 ; preds = %2
  %wide.trip.count = zext nneg i32 %7 to i64
  br label %.lr.ph

.lr.ph:                                           ; preds = %.lr.ph.preheader, %.lr.ph
  %indvars.iv = phi i64 [ 0, %.lr.ph.preheader ], [ %indvars.iv.next, %.lr.ph ]
  %.010 = phi i32 [ 0, %.lr.ph.preheader ], [ %33, %.lr.ph ]
  %12 = getelementptr inbounds nuw i32, ptr %10, i64 %indvars.iv
  %13 = load i32, ptr %12, align 4, !tbaa !28
  %14 = and i32 %13, 1431655765
  %15 = lshr i32 %13, 1
  %16 = and i32 %15, 1431655765
  %17 = add nuw i32 %16, %14
  %18 = and i32 %17, 858993459
  %19 = lshr i32 %17, 2
  %20 = and i32 %19, 858993459
  %21 = add nuw nsw i32 %20, %18
  %22 = and i32 %21, 117901063
  %23 = lshr i32 %21, 4
  %24 = and i32 %23, 117901063
  %25 = add nuw nsw i32 %24, %22
  %26 = and i32 %25, 983055
  %27 = lshr i32 %25, 8
  %28 = and i32 %27, 983055
  %29 = add nuw nsw i32 %28, %26
  %30 = and i32 %29, 31
  %31 = lshr i32 %29, 16
  %32 = add nuw nsw i32 %31, %.010
  %33 = add nuw nsw i32 %32, %30
  %indvars.iv.next = add nuw nsw i64 %indvars.iv, 1
  %exitcond.not = icmp eq i64 %indvars.iv.next, %wide.trip.count
  br i1 %exitcond.not, label %._crit_edge, label %.lr.ph, !llvm.loop !35

._crit_edge:                                      ; preds = %.lr.ph, %2
  %.0.lcssa = phi i32 [ 0, %2 ], [ %33, %.lr.ph ]
  ret i32 %.0.lcssa
}